target datalayout = "e-m:e-p270:32:32-p271:32:32-p272:64:64-i64:64-i128:128-f80:128-n8:16:32:64-S128"
target triple = "x86_64-pc-linux-gnu"

%struct.promisor_remote_config = type { ptr, ptr }
%struct.promisor_remote = type { ptr, ptr, [0 x i8] }

; Function Attrs: nounwind uwtable
define dso_local void @promisor_remote_clear(ptr noundef %0) #0 {
  %2 = alloca ptr, align 8
  %3 = alloca ptr, align 8
  store ptr %0, ptr %2, align 8, !tbaa !4
  br label %4

4:                                                ; preds = %9, %1
  %5 = load ptr, ptr %2, align 8, !tbaa !4
  %6 = getelementptr inbounds nuw %struct.promisor_remote_config, ptr %5, i32 0, i32 0
  %7 = load ptr, ptr %6, align 8, !tbaa !9
  %8 = icmp ne ptr %7, null
  br i1 %8, label %9, label %24

9:                                                ; preds = %4
  call void @llvm.lifetime.start.p0(i64 8, ptr %3) #8
  %10 = load ptr, ptr %2, align 8, !tbaa !4
  %11 = getelementptr inbounds nuw %struct.promisor_remote_config, ptr %10, i32 0, i32 0
  %12 = load ptr, ptr %11, align 8, !tbaa !9
  store ptr %12, ptr %3, align 8, !tbaa !13
  %13 = load ptr, ptr %3, align 8, !tbaa !13
  %14 = getelementptr inbounds nuw %struct.promisor_remote, ptr %13, i32 0, i32 1
  %15 = load ptr, ptr %14, align 8, !tbaa !14
  call void @free(ptr noundef %15) #8
  %16 = load ptr, ptr %2, align 8, !tbaa !4
  %17 = getelementptr inbounds nuw %struct.promisor_remote_config, ptr %16, i32 0, i32 0
  %18 = load ptr, ptr %17, align 8, !tbaa !9
  %19 = getelementptr inbounds nuw %struct.promisor_remote, ptr %18, i32 0, i32 0
  %20 = load ptr, ptr %19, align 8, !tbaa !13
  %21 = load ptr, ptr %2, align 8, !tbaa !4
  %22 = getelementptr inbounds nuw %struct.promisor_remote_config, ptr %21, i32 0, i32 0
  store ptr %20, ptr %22, align 8, !tbaa !9
  %23 = load ptr, ptr %3, align 8, !tbaa !13
  call void @free(ptr noundef %23) #8
  call void @llvm.lifetime.end.p0(i64 8, ptr %3) #8
  br label %4, !llvm.loop !16

24:                                               ; preds = %4
  %25 = load ptr, ptr %2, align 8, !tbaa !4
  %26 = getelementptr inbounds nuw %struct.promisor_remote_config, ptr %25, i32 0, i32 0
  %27 = load ptr, ptr %2, align 8, !tbaa !4
  %28 = getelementptr inbounds nuw %struct.promisor_remote_config, ptr %27, i32 0, i32 1
  store ptr %26, ptr %28, align 8, !tbaa !18
  ret void
}