; Function Attrs: nounwind uwtable
define dso_local void @promisor_remote_clear(ptr noundef %0) local_unnamed_addr #0 {
  %2 = load ptr, ptr %0, align 8, !tbaa !4
  %.not8 = icmp eq ptr %2, null
  br i1 %.not8, label %._crit_edge, label %.lr.ph

.lr.ph:                                           ; preds = %1, %.lr.ph
  %3 = phi ptr [ %8, %.lr.ph ], [ %2, %1 ]
  %4 = getelementptr inbounds nuw i8, ptr %3, i64 8
  %5 = load ptr, ptr %4, align 8, !tbaa !11
  tail call void @free(ptr noundef %5) #10
  %6 = load ptr, ptr %0, align 8, !tbaa !4
  %7 = load ptr, ptr %6, align 8, !tbaa !13
  store ptr %7, ptr %0, align 8, !tbaa !4
  tail call void @free(ptr noundef nonnull %3) #10
  %8 = load ptr, ptr %0, align 8, !tbaa !4
  %.not = icmp eq ptr %8, null
  br i1 %.not, label %._crit_edge, label %.lr.ph, !llvm.loop !14

._crit_edge:                                      ; preds = %.lr.ph, %1
  %9 = getelementptr inbounds nuw i8, ptr %0, i64 8
  store ptr %0, ptr %9, align 8, !tbaa !16
  ret void
}